; Function Attrs: nounwind uwtable
define hidden noundef i32 @phpdbg_do_clean(ptr nocapture readnone %0) #0 {
  %2 = load i8, ptr getelementptr inbounds (%struct._zend_phpdbg_globals, ptr @phpdbg_globals, i64 0, i32 30), align 8
  %3 = and i8 %2, 1
  %.not = icmp eq i8 %3, 0
  br i1 %.not, label %7, label %4

4:                                                ; preds = %1
  %5 = tail call i32 @phpdbg_ask_user_permission(ptr noundef nonnull @.str.160) #24
  %6 = icmp eq i32 %5, -1
  br i1 %6, label %37, label %7

7:                                                ; preds = %4, %1
  %8 = load i32, ptr getelementptr inbounds (%struct._zend_phpdbg_globals, ptr @phpdbg_globals, i64 0, i32 39, i64 1), align 4
  %9 = tail call i32 (i32, ptr, ...) @phpdbg_out_internal(i32 noundef %8, ptr noundef nonnull @.str.161) #24
  %10 = load i32, ptr getelementptr inbounds (%struct._zend_phpdbg_globals, ptr @phpdbg_globals, i64 0, i32 39, i64 1), align 4
  %11 = load ptr, ptr getelementptr inbounds (%struct._zend_executor_globals, ptr @executor_globals, i64 0, i32 11), align 8
  %12 = getelementptr inbounds i8, ptr %11, i64 28
  %13 = load i32, ptr %12, align 4
  %14 = tail call i32 (i32, i32, ptr, ...) @phpdbg_print(i32 noundef 3, i32 noundef %10, ptr noundef nonnull @.str.120, i32 noundef %13) #24
  %15 = load i32, ptr getelementptr inbounds (%struct._zend_phpdbg_globals, ptr @phpdbg_globals, i64 0, i32 39, i64 1), align 4
  %16 = load ptr, ptr getelementptr inbounds (%struct._zend_executor_globals, ptr @executor_globals, i64 0, i32 10), align 8
  %17 = getelementptr inbounds i8, ptr %16, i64 28
  %18 = load i32, ptr %17, align 4
  %19 = tail call i32 (i32, i32, ptr, ...) @phpdbg_print(i32 noundef 3, i32 noundef %15, ptr noundef nonnull @.str.121, i32 noundef %18) #24
  %20 = load i32, ptr getelementptr inbounds (%struct._zend_phpdbg_globals, ptr @phpdbg_globals, i64 0, i32 39, i64 1), align 4
  %21 = load ptr, ptr getelementptr inbounds (%struct._zend_executor_globals, ptr @executor_globals, i64 0, i32 12), align 8
  %22 = getelementptr inbounds i8, ptr %21, i64 28
  %23 = load i32, ptr %22, align 4
  %24 = tail call i32 (i32, i32, ptr, ...) @phpdbg_print(i32 noundef 3, i32 noundef %20, ptr noundef nonnull @.str.122, i32 noundef %23) #24
  %25 = load i32, ptr getelementptr inbounds (%struct._zend_phpdbg_globals, ptr @phpdbg_globals, i64 0, i32 39, i64 1), align 4
  %26 = load i32, ptr getelementptr inbounds (%struct._zend_executor_globals, ptr @executor_globals, i64 0, i32 6, i32 5), align 4
  %27 = tail call i32 (i32, i32, ptr, ...) @phpdbg_print(i32 noundef 3, i32 noundef %25, ptr noundef nonnull @.str.162, i32 noundef %26) #24
  %28 = load ptr, ptr getelementptr inbounds (%struct._zend_phpdbg_globals, ptr @phpdbg_globals, i64 0, i32 26), align 8
  %.not4.i = icmp eq ptr %28, null
  br i1 %.not4.i, label %31, label %29

29:                                               ; preds = %7
  tail call void @destroy_op_array(ptr noundef nonnull %28) #24
  %30 = load ptr, ptr getelementptr inbounds (%struct._zend_phpdbg_globals, ptr @phpdbg_globals, i64 0, i32 26), align 8
  tail call void @_efree(ptr noundef %30) #24
  store ptr null, ptr getelementptr inbounds (%struct._zend_phpdbg_globals, ptr @phpdbg_globals, i64 0, i32 26), align 8
  br label %31

31:                                               ; preds = %29, %7
  %32 = load ptr, ptr getelementptr inbounds (%struct._zend_phpdbg_globals, ptr @phpdbg_globals, i64 0, i32 7), align 8
  %33 = icmp eq ptr %32, null
  br i1 %33, label %phpdbg_clean.exit, label %34

34:                                               ; preds = %31
  tail call void @free(ptr noundef nonnull %32) #24
  store ptr null, ptr getelementptr inbounds (%struct._zend_phpdbg_globals, ptr @phpdbg_globals, i64 0, i32 7), align 8
  br label %phpdbg_clean.exit

phpdbg_clean.exit:                                ; preds = %31, %34
  %35 = load i64, ptr getelementptr inbounds (%struct._zend_phpdbg_globals, ptr @phpdbg_globals, i64 0, i32 53), align 8
  %36 = or i64 %35, 262144
  store i64 %36, ptr getelementptr inbounds (%struct._zend_phpdbg_globals, ptr @phpdbg_globals, i64 0, i32 53), align 8
  br label %37

37:                                               ; preds = %4, %phpdbg_clean.exit
  ret i32 0
}